target datalayout = "e-m:e-p270:32:32-p271:32:32-p272:64:64-i64:64-i128:128-f80:128-n8:16:32:64-S128"
target triple = "x86_64-pc-linux-gnu"

%struct.Agobj_s = type { %struct.Agtag_s, ptr }
%struct.Agtag_s = type { i32, i64 }
%struct.Agedge_s = type { %struct.Agobj_s, %struct.dtlink_s_, %struct.dtlink_s_, ptr }
%struct.dtlink_s_ = type { ptr, %union.anon }
%union.anon = type { ptr }
%struct.Agnodeinfo_t = type { %struct.Agrec_s, ptr, ptr, %struct.pointf_s, double, double, %struct.boxf, double, double, double, double, double, ptr, ptr, ptr, i8, i8, i8, i8, i32, i32, i32, ptr, double, i8, i8, ptr, ptr, i8, i64, i8, i8, i8, ptr, ptr, %struct.elist, %struct.elist, %struct.elist, %struct.elist, %struct.elist, ptr, i32, ptr, i32, i32, double, %struct.elist, %struct.elist, %struct.elist, %struct.elist, ptr, i32, i32, i32, [1 x double] }
%struct.Agrec_s = type { ptr, ptr }
%struct.pointf_s = type { double, double }
%struct.boxf = type { %struct.pointf_s, %struct.pointf_s }
%struct.elist = type { ptr, i64 }
%struct.Agedgeinfo_t = type { %struct.Agrec_s, ptr, %struct.port, %struct.port, ptr, ptr, ptr, ptr, i8, i8, i8, i8, i8, ptr, ptr, double, double, %struct.Ppoly_t, i8, i8, i16, i32, i32, i32, i16, i32, ptr }
%struct.port = type { %struct.pointf_s, double, ptr, i8, i8, i8, i8, i8, i8, ptr }
%struct.Ppoly_t = type { ptr, i64 }
%struct.Agraphinfo_t = type { %struct.Agrec_s, ptr, ptr, %struct.boxf, [4 x %struct.pointf_s], i8, i8, i8, i8, i32, double, double, i16, ptr, ptr, ptr, ptr, i32, ptr, ptr, ptr, ptr, i16, i16, i32, ptr, ptr, ptr, ptr, ptr, i32, ptr, ptr, %struct.nlist_t, ptr, ptr, i32, i32, i8, i8, i32, i32, i32, ptr, ptr, ptr, ptr, i8, i8, i8, i8, i8 }
%struct.nlist_t = type { ptr, i64 }

; Function Attrs: nounwind uwtable
define internal void @incr_width(ptr noundef %0, ptr noundef %1) #0 {
  %3 = alloca ptr, align 8
  %4 = alloca ptr, align 8
  %5 = alloca i32, align 4
  store ptr %0, ptr %3, align 8, !tbaa !3
  store ptr %1, ptr %4, align 8, !tbaa !51
  call void @llvm.lifetime.start.p0(i64 4, ptr %5) #9
  %6 = load ptr, ptr %3, align 8, !tbaa !3
  %7 = getelementptr inbounds nuw %struct.Agobj_s, ptr %6, i32 0, i32 1
  %8 = load ptr, ptr %7, align 8, !tbaa !22
  %9 = getelementptr inbounds nuw %struct.Agraphinfo_t, ptr %8, i32 0, i32 41
  %10 = load i32, ptr %9, align 8, !tbaa !52
  %11 = sdiv i32 %10, 2
  store i32 %11, ptr %5, align 4, !tbaa !35
  %12 = load i32, ptr %5, align 4, !tbaa !35
  %13 = sitofp i32 %12 to double
  %14 = load ptr, ptr %4, align 8, !tbaa !51
  %15 = getelementptr inbounds nuw %struct.Agobj_s, ptr %14, i32 0, i32 1
  %16 = load ptr, ptr %15, align 8, !tbaa !22
  %17 = getelementptr inbounds nuw %struct.Agnodeinfo_t, ptr %16, i32 0, i32 8
  %18 = load double, ptr %17, align 8, !tbaa !62
  %19 = fadd double %18, %13
  store double %19, ptr %17, align 8, !tbaa !62
  %20 = load i32, ptr %5, align 4, !tbaa !35
  %21 = sitofp i32 %20 to double
  %22 = load ptr, ptr %4, align 8, !tbaa !51
  %23 = getelementptr inbounds nuw %struct.Agobj_s, ptr %22, i32 0, i32 1
  %24 = load ptr, ptr %23, align 8, !tbaa !22
  %25 = getelementptr inbounds nuw %struct.Agnodeinfo_t, ptr %24, i32 0, i32 9
  %26 = load double, ptr %25, align 8, !tbaa !63
  %27 = fadd double %26, %21
  store double %27, ptr %25, align 8, !tbaa !63
  call void @llvm.lifetime.end.p0(i64 4, ptr %5) #9
  ret void
}

; Function Attrs: nounwind uwtable
define void @merge_chain(ptr noundef %0, ptr noundef %1, ptr noundef %2, i1 noundef zeroext %3) #0 {
  %5 = alloca ptr, align 8
  %6 = alloca ptr, align 8
  %7 = alloca ptr, align 8
  %8 = alloca i8, align 1
  %9 = alloca ptr, align 8
  %10 = alloca i32, align 4
  store ptr %0, ptr %5, align 8, !tbaa !3
  store ptr %1, ptr %6, align 8, !tbaa !8
  store ptr %2, ptr %7, align 8, !tbaa !8
  %11 = zext i1 %3 to i8
  store i8 %11, ptr %8, align 1, !tbaa !10
  call void @llvm.lifetime.start.p0(i64 8, ptr %9) #9
  call void @llvm.lifetime.start.p0(i64 4, ptr %10) #9
  %12 = load ptr, ptr %6, align 8, !tbaa !8
  %13 = getelementptr inbounds nuw %struct.Agobj_s, ptr %12, i32 0, i32 0
  %14 = load i32, ptr %13, align 8
  %15 = and i32 %14, 3
  %16 = icmp eq i32 %15, 3
  br i1 %16, label %17, label %19

17:                                               ; preds = %4
  %18 = load ptr, ptr %6, align 8, !tbaa !8
  br label %22

19:                                               ; preds = %4
  %20 = load ptr, ptr %6, align 8, !tbaa !8
  %21 = getelementptr inbounds %struct.Agedge_s, ptr %20, i64 1
  br label %22

22:                                               ; preds = %19, %17
  %23 = phi ptr [ %18, %17 ], [ %21, %19 ]
  %24 = getelementptr inbounds nuw %struct.Agedge_s, ptr %23, i32 0, i32 3
  %25 = load ptr, ptr %24, align 8, !tbaa !12
  %26 = getelementptr inbounds nuw %struct.Agobj_s, ptr %25, i32 0, i32 1
  %27 = load ptr, ptr %26, align 8, !tbaa !22
  %28 = getelementptr inbounds nuw %struct.Agnodeinfo_t, ptr %27, i32 0, i32 43
  %29 = load i32, ptr %28, align 8, !tbaa !23
  %30 = load ptr, ptr %6, align 8, !tbaa !8
  %31 = getelementptr inbounds nuw %struct.Agobj_s, ptr %30, i32 0, i32 0
  %32 = load i32, ptr %31, align 8
  %33 = and i32 %32, 3
  %34 = icmp eq i32 %33, 2
  br i1 %34, label %35, label %37

35:                                               ; preds = %22
  %36 = load ptr, ptr %6, align 8, !tbaa !8
  br label %40

37:                                               ; preds = %22
  %38 = load ptr, ptr %6, align 8, !tbaa !8
  %39 = getelementptr inbounds %struct.Agedge_s, ptr %38, i64 -1
  br label %40

40:                                               ; preds = %37, %35
  %41 = phi ptr [ %36, %35 ], [ %39, %37 ]
  %42 = getelementptr inbounds nuw %struct.Agedge_s, ptr %41, i32 0, i32 3
  %43 = load ptr, ptr %42, align 8, !tbaa !12
  %44 = getelementptr inbounds nuw %struct.Agobj_s, ptr %43, i32 0, i32 1
  %45 = load ptr, ptr %44, align 8, !tbaa !22
  %46 = getelementptr inbounds nuw %struct.Agnodeinfo_t, ptr %45, i32 0, i32 43
  %47 = load i32, ptr %46, align 8, !tbaa !23
  %48 = icmp sgt i32 %29, %47
  br i1 %48, label %49, label %68

49:                                               ; preds = %40
  %50 = load ptr, ptr %6, align 8, !tbaa !8
  %51 = getelementptr inbounds nuw %struct.Agobj_s, ptr %50, i32 0, i32 0
  %52 = load i32, ptr %51, align 8
  %53 = and i32 %52, 3
  %54 = icmp eq i32 %53, 3
  br i1 %54, label %55, label %57

55:                                               ; preds = %49
  %56 = load ptr, ptr %6, align 8, !tbaa !8
  br label %60

57:                                               ; preds = %49
  %58 = load ptr, ptr %6, align 8, !tbaa !8
  %59 = getelementptr inbounds %struct.Agedge_s, ptr %58, i64 1
  br label %60

60:                                               ; preds = %57, %55
  %61 = phi ptr [ %56, %55 ], [ %59, %57 ]
  %62 = getelementptr inbounds nuw %struct.Agedge_s, ptr %61, i32 0, i32 3
  %63 = load ptr, ptr %62, align 8, !tbaa !12
  %64 = getelementptr inbounds nuw %struct.Agobj_s, ptr %63, i32 0, i32 1
  %65 = load ptr, ptr %64, align 8, !tbaa !22
  %66 = getelementptr inbounds nuw %struct.Agnodeinfo_t, ptr %65, i32 0, i32 43
  %67 = load i32, ptr %66, align 8, !tbaa !23
  br label %87

68:                                               ; preds = %40
  %69 = load ptr, ptr %6, align 8, !tbaa !8
  %70 = getelementptr inbounds nuw %struct.Agobj_s, ptr %69, i32 0, i32 0
  %71 = load i32, ptr %70, align 8
  %72 = and i32 %71, 3
  %73 = icmp eq i32 %72, 2
  br i1 %73, label %74, label %76

74:                                               ; preds = %68
  %75 = load ptr, ptr %6, align 8, !tbaa !8
  br label %79

76:                                               ; preds = %68
  %77 = load ptr, ptr %6, align 8, !tbaa !8
  %78 = getelementptr inbounds %struct.Agedge_s, ptr %77, i64 -1
  br label %79

79:                                               ; preds = %76, %74
  %80 = phi ptr [ %75, %74 ], [ %78, %76 ]
  %81 = getelementptr inbounds nuw %struct.Agedge_s, ptr %80, i32 0, i32 3
  %82 = load ptr, ptr %81, align 8, !tbaa !12
  %83 = getelementptr inbounds nuw %struct.Agobj_s, ptr %82, i32 0, i32 1
  %84 = load ptr, ptr %83, align 8, !tbaa !22
  %85 = getelementptr inbounds nuw %struct.Agnodeinfo_t, ptr %84, i32 0, i32 43
  %86 = load i32, ptr %85, align 8, !tbaa !23
  br label %87

87:                                               ; preds = %79, %60
  %88 = phi i32 [ %67, %60 ], [ %86, %79 ]
  store i32 %88, ptr %10, align 4, !tbaa !35
  %89 = load ptr, ptr %7, align 8, !tbaa !8
  %90 = load ptr, ptr %6, align 8, !tbaa !8
  %91 = getelementptr inbounds nuw %struct.Agobj_s, ptr %90, i32 0, i32 1
  %92 = load ptr, ptr %91, align 8, !tbaa !22
  %93 = getelementptr inbounds nuw %struct.Agedgeinfo_t, ptr %92, i32 0, i32 26
  store ptr %89, ptr %93, align 8, !tbaa !36
  %94 = load ptr, ptr %7, align 8, !tbaa !8
  store ptr %94, ptr %9, align 8, !tbaa !8
  br label %95

95:                                               ; preds = %197, %87
  %96 = load i8, ptr %8, align 1, !tbaa !10, !range !43, !noundef !44
  %97 = trunc i8 %96 to i1
  br i1 %97, label %98, label %113

98:                                               ; preds = %95
  %99 = load ptr, ptr %6, align 8, !tbaa !8
  %100 = getelementptr inbounds nuw %struct.Agobj_s, ptr %99, i32 0, i32 1
  %101 = load ptr, ptr %100, align 8, !tbaa !22
  %102 = getelementptr inbounds nuw %struct.Agedgeinfo_t, ptr %101, i32 0, i32 24
  %103 = load i16, ptr %102, align 8, !tbaa !45
  %104 = sext i16 %103 to i32
  %105 = load ptr, ptr %9, align 8, !tbaa !8
  %106 = getelementptr inbounds nuw %struct.Agobj_s, ptr %105, i32 0, i32 1
  %107 = load ptr, ptr %106, align 8, !tbaa !22
  %108 = getelementptr inbounds nuw %struct.Agedgeinfo_t, ptr %107, i32 0, i32 24
  %109 = load i16, ptr %108, align 8, !tbaa !45
  %110 = sext i16 %109 to i32
  %111 = add nsw i32 %110, %104
  %112 = trunc i32 %111 to i16
  store i16 %112, ptr %108, align 8, !tbaa !45
  br label %113

113:                                              ; preds = %98, %95
  %114 = load ptr, ptr %6, align 8, !tbaa !8
  %115 = getelementptr inbounds nuw %struct.Agobj_s, ptr %114, i32 0, i32 1
  %116 = load ptr, ptr %115, align 8, !tbaa !22
  %117 = getelementptr inbounds nuw %struct.Agedgeinfo_t, ptr %116, i32 0, i32 20
  %118 = load i16, ptr %117, align 2, !tbaa !46
  %119 = sext i16 %118 to i32
  %120 = load ptr, ptr %9, align 8, !tbaa !8
  %121 = getelementptr inbounds nuw %struct.Agobj_s, ptr %120, i32 0, i32 1
  %122 = load ptr, ptr %121, align 8, !tbaa !22
  %123 = getelementptr inbounds nuw %struct.Agedgeinfo_t, ptr %122, i32 0, i32 20
  %124 = load i16, ptr %123, align 2, !tbaa !46
  %125 = sext i16 %124 to i32
  %126 = add nsw i32 %125, %119
  %127 = trunc i32 %126 to i16
  store i16 %127, ptr %123, align 2, !tbaa !46
  %128 = load ptr, ptr %6, align 8, !tbaa !8
  %129 = getelementptr inbounds nuw %struct.Agobj_s, ptr %128, i32 0, i32 1
  %130 = load ptr, ptr %129, align 8, !tbaa !22
  %131 = getelementptr inbounds nuw %struct.Agedgeinfo_t, ptr %130, i32 0, i32 21
  %132 = load i32, ptr %131, align 4, !tbaa !47
  %133 = load ptr, ptr %9, align 8, !tbaa !8
  %134 = getelementptr inbounds nuw %struct.Agobj_s, ptr %133, i32 0, i32 1
  %135 = load ptr, ptr %134, align 8, !tbaa !22
  %136 = getelementptr inbounds nuw %struct.Agedgeinfo_t, ptr %135, i32 0, i32 21
  %137 = load i32, ptr %136, align 4, !tbaa !47
  %138 = add nsw i32 %137, %132
  store i32 %138, ptr %136, align 4, !tbaa !47
  %139 = load ptr, ptr %9, align 8, !tbaa !8
  %140 = getelementptr inbounds nuw %struct.Agobj_s, ptr %139, i32 0, i32 0
  %141 = load i32, ptr %140, align 8
  %142 = and i32 %141, 3
  %143 = icmp eq i32 %142, 2
  br i1 %143, label %144, label %146

144:                                              ; preds = %113
  %145 = load ptr, ptr %9, align 8, !tbaa !8
  br label %149

146:                                              ; preds = %113
  %147 = load ptr, ptr %9, align 8, !tbaa !8
  %148 = getelementptr inbounds %struct.Agedge_s, ptr %147, i64 -1
  br label %149

149:                                              ; preds = %146, %144
  %150 = phi ptr [ %145, %144 ], [ %148, %146 ]
  %151 = getelementptr inbounds nuw %struct.Agedge_s, ptr %150, i32 0, i32 3
  %152 = load ptr, ptr %151, align 8, !tbaa !12
  %153 = getelementptr inbounds nuw %struct.Agobj_s, ptr %152, i32 0, i32 1
  %154 = load ptr, ptr %153, align 8, !tbaa !22
  %155 = getelementptr inbounds nuw %struct.Agnodeinfo_t, ptr %154, i32 0, i32 43
  %156 = load i32, ptr %155, align 8, !tbaa !23
  %157 = load i32, ptr %10, align 4, !tbaa !35
  %158 = icmp eq i32 %156, %157
  br i1 %158, label %159, label %160

159:                                              ; preds = %149
  br label %200

160:                                              ; preds = %149
  %161 = load ptr, ptr %5, align 8, !tbaa !3
  %162 = load ptr, ptr %9, align 8, !tbaa !8
  %163 = getelementptr inbounds nuw %struct.Agobj_s, ptr %162, i32 0, i32 0
  %164 = load i32, ptr %163, align 8
  %165 = and i32 %164, 3
  %166 = icmp eq i32 %165, 2
  br i1 %166, label %167, label %169

167:                                              ; preds = %160
  %168 = load ptr, ptr %9, align 8, !tbaa !8
  br label %172

169:                                              ; preds = %160
  %170 = load ptr, ptr %9, align 8, !tbaa !8
  %171 = getelementptr inbounds %struct.Agedge_s, ptr %170, i64 -1
  br label %172

172:                                              ; preds = %169, %167
  %173 = phi ptr [ %168, %167 ], [ %171, %169 ]
  %174 = getelementptr inbounds nuw %struct.Agedge_s, ptr %173, i32 0, i32 3
  %175 = load ptr, ptr %174, align 8, !tbaa !12
  call void @incr_width(ptr noundef %161, ptr noundef %175)
  %176 = load ptr, ptr %9, align 8, !tbaa !8
  %177 = getelementptr inbounds nuw %struct.Agobj_s, ptr %176, i32 0, i32 0
  %178 = load i32, ptr %177, align 8
  %179 = and i32 %178, 3
  %180 = icmp eq i32 %179, 2
  br i1 %180, label %181, label %183

181:                                              ; preds = %172
  %182 = load ptr, ptr %9, align 8, !tbaa !8
  br label %186

183:                                              ; preds = %172
  %184 = load ptr, ptr %9, align 8, !tbaa !8
  %185 = getelementptr inbounds %struct.Agedge_s, ptr %184, i64 -1
  br label %186

186:                                              ; preds = %183, %181
  %187 = phi ptr [ %182, %181 ], [ %185, %183 ]
  %188 = getelementptr inbounds nuw %struct.Agedge_s, ptr %187, i32 0, i32 3
  %189 = load ptr, ptr %188, align 8, !tbaa !12
  %190 = getelementptr inbounds nuw %struct.Agobj_s, ptr %189, i32 0, i32 1
  %191 = load ptr, ptr %190, align 8, !tbaa !22
  %192 = getelementptr inbounds nuw %struct.Agnodeinfo_t, ptr %191, i32 0, i32 36
  %193 = getelementptr inbounds nuw %struct.elist, ptr %192, i32 0, i32 0
  %194 = load ptr, ptr %193, align 8, !tbaa !48
  %195 = getelementptr inbounds ptr, ptr %194, i64 0
  %196 = load ptr, ptr %195, align 8, !tbaa !8
  store ptr %196, ptr %9, align 8, !tbaa !8
  br label %197

197:                                              ; preds = %186
  %198 = load ptr, ptr %9, align 8, !tbaa !8
  %199 = icmp ne ptr %198, null
  br i1 %199, label %95, label %200, !llvm.loop !49

200:                                              ; preds = %197, %159
  call void @llvm.lifetime.end.p0(i64 4, ptr %10) #9
  call void @llvm.lifetime.end.p0(i64 8, ptr %9) #9
  ret void
}