; Function Attrs: nofree norecurse nosync nounwind memory(readwrite, inaccessiblemem: none) uwtable
define void @merge_chain(ptr noundef readonly captures(none) %0, ptr noundef readonly captures(none) %1, ptr noundef %2, i1 noundef zeroext %3) local_unnamed_addr #0 {
  %5 = load i32, ptr %1, align 8
  %6 = and i32 %5, 3
  %7 = icmp eq i32 %6, 3
  %.idx = select i1 %7, i64 0, i64 64
  %8 = getelementptr inbounds nuw i8, ptr %1, i64 %.idx
  %9 = getelementptr inbounds nuw i8, ptr %8, i64 56
  %10 = load ptr, ptr %9, align 8, !tbaa !3
  %11 = getelementptr inbounds nuw i8, ptr %10, i64 16
  %12 = load ptr, ptr %11, align 8, !tbaa !16
  %13 = getelementptr inbounds nuw i8, ptr %12, i64 360
  %14 = load i32, ptr %13, align 8, !tbaa !17
  %15 = icmp eq i32 %6, 2
  %.idx36 = select i1 %15, i64 0, i64 -64
  %16 = getelementptr inbounds i8, ptr %1, i64 %.idx36
  %17 = getelementptr inbounds nuw i8, ptr %16, i64 56
  %18 = load ptr, ptr %17, align 8, !tbaa !3
  %19 = getelementptr inbounds nuw i8, ptr %18, i64 16
  %20 = load ptr, ptr %19, align 8, !tbaa !16
  %21 = getelementptr inbounds nuw i8, ptr %20, i64 360
  %22 = load i32, ptr %21, align 8, !tbaa !17
  %. = tail call i32 @llvm.smax.i32(i32 %14, i32 %22)
  %23 = getelementptr inbounds nuw i8, ptr %1, i64 16
  %24 = load ptr, ptr %23, align 8, !tbaa !16
  %25 = getelementptr inbounds nuw i8, ptr %24, i64 232
  store ptr %2, ptr %25, align 8, !tbaa !32
  %26 = getelementptr i8, ptr %0, i64 16
  %27 = getelementptr inbounds nuw i8, ptr %24, i64 210
  %28 = getelementptr inbounds nuw i8, ptr %24, i64 212
  %29 = getelementptr inbounds nuw i8, ptr %24, i64 224
  br i1 %3, label %.split.us, label %.split

.split.us:                                        ; preds = %4, %56
  %.0.us = phi ptr [ %76, %56 ], [ %2, %4 ]
  %30 = load i16, ptr %29, align 8, !tbaa !39
  %31 = getelementptr inbounds nuw i8, ptr %.0.us, i64 16
  %32 = load ptr, ptr %31, align 8, !tbaa !16
  %33 = getelementptr inbounds nuw i8, ptr %32, i64 224
  %34 = load i16, ptr %33, align 8, !tbaa !39
  %35 = add i16 %34, %30
  store i16 %35, ptr %33, align 8, !tbaa !39
  %36 = load i16, ptr %27, align 2, !tbaa !40
  %37 = getelementptr inbounds nuw i8, ptr %32, i64 210
  %38 = load i16, ptr %37, align 2, !tbaa !40
  %39 = add i16 %38, %36
  store i16 %39, ptr %37, align 2, !tbaa !40
  %40 = load i32, ptr %28, align 4, !tbaa !41
  %41 = getelementptr inbounds nuw i8, ptr %32, i64 212
  %42 = load i32, ptr %41, align 4, !tbaa !41
  %43 = add nsw i32 %42, %40
  store i32 %43, ptr %41, align 4, !tbaa !41
  %44 = load i32, ptr %.0.us, align 8
  %45 = and i32 %44, 3
  %46 = icmp eq i32 %45, 2
  %47 = getelementptr inbounds i8, ptr %.0.us, i64 -64
  %48 = select i1 %46, ptr %.0.us, ptr %47
  %49 = getelementptr inbounds nuw i8, ptr %48, i64 56
  %50 = load ptr, ptr %49, align 8, !tbaa !3
  %51 = getelementptr inbounds nuw i8, ptr %50, i64 16
  %52 = load ptr, ptr %51, align 8, !tbaa !16
  %53 = getelementptr inbounds nuw i8, ptr %52, i64 360
  %54 = load i32, ptr %53, align 8, !tbaa !17
  %55 = icmp eq i32 %54, %.
  br i1 %55, label %.split39.us, label %56

56:                                               ; preds = %.split.us
  %.val.us = load ptr, ptr %26, align 8, !tbaa !16
  %57 = getelementptr i8, ptr %.val.us, i64 352
  %.val.val.us = load i32, ptr %57, align 8, !tbaa !42
  %58 = sdiv i32 %.val.val.us, 2
  %59 = sitofp i32 %58 to double
  %60 = getelementptr inbounds nuw i8, ptr %52, i64 104
  %61 = load double, ptr %60, align 8, !tbaa !52
  %62 = fadd double %61, %59
  store double %62, ptr %60, align 8, !tbaa !52
  %63 = getelementptr inbounds nuw i8, ptr %52, i64 112
  %64 = load double, ptr %63, align 8, !tbaa !53
  %65 = fadd double %64, %59
  store double %65, ptr %63, align 8, !tbaa !53
  %66 = load i32, ptr %.0.us, align 8
  %67 = and i32 %66, 3
  %68 = icmp eq i32 %67, 2
  %69 = select i1 %68, ptr %.0.us, ptr %47
  %70 = getelementptr inbounds nuw i8, ptr %69, i64 56
  %71 = load ptr, ptr %70, align 8, !tbaa !3
  %72 = getelementptr inbounds nuw i8, ptr %71, i64 16
  %73 = load ptr, ptr %72, align 8, !tbaa !16
  %74 = getelementptr inbounds nuw i8, ptr %73, i64 272
  %75 = load ptr, ptr %74, align 8, !tbaa !54
  %76 = load ptr, ptr %75, align 8, !tbaa !55
  %.not.us = icmp eq ptr %76, null
  br i1 %.not.us, label %.split39.us, label %.split.us, !llvm.loop !56

.split:                                           ; preds = %4, %99
  %.0 = phi ptr [ %119, %99 ], [ %2, %4 ]
  %77 = load i16, ptr %27, align 2, !tbaa !40
  %78 = getelementptr inbounds nuw i8, ptr %.0, i64 16
  %79 = load ptr, ptr %78, align 8, !tbaa !16
  %80 = getelementptr inbounds nuw i8, ptr %79, i64 210
  %81 = load i16, ptr %80, align 2, !tbaa !40
  %82 = add i16 %81, %77
  store i16 %82, ptr %80, align 2, !tbaa !40
  %83 = load i32, ptr %28, align 4, !tbaa !41
  %84 = getelementptr inbounds nuw i8, ptr %79, i64 212
  %85 = load i32, ptr %84, align 4, !tbaa !41
  %86 = add nsw i32 %85, %83
  store i32 %86, ptr %84, align 4, !tbaa !41
  %87 = load i32, ptr %.0, align 8
  %88 = and i32 %87, 3
  %89 = icmp eq i32 %88, 2
  %90 = getelementptr inbounds i8, ptr %.0, i64 -64
  %91 = select i1 %89, ptr %.0, ptr %90
  %92 = getelementptr inbounds nuw i8, ptr %91, i64 56
  %93 = load ptr, ptr %92, align 8, !tbaa !3
  %94 = getelementptr inbounds nuw i8, ptr %93, i64 16
  %95 = load ptr, ptr %94, align 8, !tbaa !16
  %96 = getelementptr inbounds nuw i8, ptr %95, i64 360
  %97 = load i32, ptr %96, align 8, !tbaa !17
  %98 = icmp eq i32 %97, %.
  br i1 %98, label %.split39.us, label %99

99:                                               ; preds = %.split
  %.val = load ptr, ptr %26, align 8, !tbaa !16
  %100 = getelementptr i8, ptr %.val, i64 352
  %.val.val = load i32, ptr %100, align 8, !tbaa !42
  %101 = sdiv i32 %.val.val, 2
  %102 = sitofp i32 %101 to double
  %103 = getelementptr inbounds nuw i8, ptr %95, i64 104
  %104 = load double, ptr %103, align 8, !tbaa !52
  %105 = fadd double %104, %102
  store double %105, ptr %103, align 8, !tbaa !52
  %106 = getelementptr inbounds nuw i8, ptr %95, i64 112
  %107 = load double, ptr %106, align 8, !tbaa !53
  %108 = fadd double %107, %102
  store double %108, ptr %106, align 8, !tbaa !53
  %109 = load i32, ptr %.0, align 8
  %110 = and i32 %109, 3
  %111 = icmp eq i32 %110, 2
  %112 = select i1 %111, ptr %.0, ptr %90
  %113 = getelementptr inbounds nuw i8, ptr %112, i64 56
  %114 = load ptr, ptr %113, align 8, !tbaa !3
  %115 = getelementptr inbounds nuw i8, ptr %114, i64 16
  %116 = load ptr, ptr %115, align 8, !tbaa !16
  %117 = getelementptr inbounds nuw i8, ptr %116, i64 272
  %118 = load ptr, ptr %117, align 8, !tbaa !54
  %119 = load ptr, ptr %118, align 8, !tbaa !55
  %.not = icmp eq ptr %119, null
  br i1 %.not, label %.split39.us, label %.split, !llvm.loop !56

.split39.us:                                      ; preds = %99, %.split, %.split.us, %56
  ret void
}